target datalayout = "e-m:e-p270:32:32-p271:32:32-p272:64:64-i64:64-i128:128-f80:128-n8:16:32:64-S128"
target triple = "x86_64-pc-linux-gnu"

%struct.UTrie2 = type { ptr, ptr, ptr, i32, i32, i16, i16, i32, i32, i32, i32, ptr, i32, i8, i8, i16, ptr }

@.str.10 = private unnamed_addr constant [1 x i8] zeroinitializer, align 1

; Function Attrs: mustprogress uwtable
define void @usrc_writeUTrie2Arrays(ptr noundef %0, ptr noundef %1, ptr noundef %2, ptr noundef %3, ptr noundef %4) #1 {
  %6 = alloca ptr, align 8
  %7 = alloca ptr, align 8
  %8 = alloca ptr, align 8
  %9 = alloca ptr, align 8
  %10 = alloca ptr, align 8
  store ptr %0, ptr %6, align 8, !tbaa !25
  store ptr %1, ptr %7, align 8, !tbaa !17
  store ptr %2, ptr %8, align 8, !tbaa !17
  store ptr %3, ptr %9, align 8, !tbaa !38
  store ptr %4, ptr %10, align 8, !tbaa !17
  %11 = load ptr, ptr %9, align 8, !tbaa !38
  %12 = getelementptr inbounds nuw %struct.UTrie2, ptr %11, i32 0, i32 2
  %13 = load ptr, ptr %12, align 8, !tbaa !40
  %14 = icmp eq ptr %13, null
  br i1 %14, label %15, label %29

15:                                               ; preds = %5
  %16 = load ptr, ptr %6, align 8, !tbaa !25
  %17 = load ptr, ptr %7, align 8, !tbaa !17
  %18 = load ptr, ptr %9, align 8, !tbaa !38
  %19 = getelementptr inbounds nuw %struct.UTrie2, ptr %18, i32 0, i32 0
  %20 = load ptr, ptr %19, align 8, !tbaa !43
  %21 = load ptr, ptr %9, align 8, !tbaa !38
  %22 = getelementptr inbounds nuw %struct.UTrie2, ptr %21, i32 0, i32 3
  %23 = load i32, ptr %22, align 8, !tbaa !44
  %24 = load ptr, ptr %9, align 8, !tbaa !38
  %25 = getelementptr inbounds nuw %struct.UTrie2, ptr %24, i32 0, i32 4
  %26 = load i32, ptr %25, align 4, !tbaa !45
  %27 = add nsw i32 %23, %26
  %28 = load ptr, ptr %10, align 8, !tbaa !17
  call void @usrc_writeArray(ptr noundef %16, ptr noundef %17, ptr noundef %20, i32 noundef 16, i32 noundef %27, ptr noundef @.str.10, ptr noundef %28)
  br label %48

29:                                               ; preds = %5
  %30 = load ptr, ptr %6, align 8, !tbaa !25
  %31 = load ptr, ptr %7, align 8, !tbaa !17
  %32 = load ptr, ptr %9, align 8, !tbaa !38
  %33 = getelementptr inbounds nuw %struct.UTrie2, ptr %32, i32 0, i32 0
  %34 = load ptr, ptr %33, align 8, !tbaa !43
  %35 = load ptr, ptr %9, align 8, !tbaa !38
  %36 = getelementptr inbounds nuw %struct.UTrie2, ptr %35, i32 0, i32 3
  %37 = load i32, ptr %36, align 8, !tbaa !44
  %38 = load ptr, ptr %10, align 8, !tbaa !17
  call void @usrc_writeArray(ptr noundef %30, ptr noundef %31, ptr noundef %34, i32 noundef 16, i32 noundef %37, ptr noundef @.str.10, ptr noundef %38)
  %39 = load ptr, ptr %6, align 8, !tbaa !25
  %40 = load ptr, ptr %8, align 8, !tbaa !17
  %41 = load ptr, ptr %9, align 8, !tbaa !38
  %42 = getelementptr inbounds nuw %struct.UTrie2, ptr %41, i32 0, i32 2
  %43 = load ptr, ptr %42, align 8, !tbaa !40
  %44 = load ptr, ptr %9, align 8, !tbaa !38
  %45 = getelementptr inbounds nuw %struct.UTrie2, ptr %44, i32 0, i32 4
  %46 = load i32, ptr %45, align 4, !tbaa !45
  %47 = load ptr, ptr %10, align 8, !tbaa !17
  call void @usrc_writeArray(ptr noundef %39, ptr noundef %40, ptr noundef %43, i32 noundef 32, i32 noundef %46, ptr noundef @.str.10, ptr noundef %47)
  br label %48

48:                                               ; preds = %29, %15
  ret void
}