; Function Attrs: mustprogress nofree nounwind uwtable
define void @usrc_writeUTrie2Arrays(ptr noundef captures(none) %0, ptr noundef %1, ptr noundef %2, ptr noundef readonly captures(none) %3, ptr noundef %4) local_unnamed_addr #13 {
  %6 = getelementptr inbounds nuw i8, ptr %3, i64 16
  %7 = load ptr, ptr %6, align 8, !tbaa !24
  %8 = icmp eq ptr %7, null
  %9 = load ptr, ptr %3, align 8, !tbaa !29
  %10 = getelementptr inbounds nuw i8, ptr %3, i64 24
  %11 = load i32, ptr %10, align 8, !tbaa !30
  br i1 %8, label %12, label %16

12:                                               ; preds = %5
  %13 = getelementptr inbounds nuw i8, ptr %3, i64 28
  %14 = load i32, ptr %13, align 4, !tbaa !31
  %15 = add nsw i32 %14, %11
  tail call void @usrc_writeArray(ptr noundef %0, ptr noundef %1, ptr noundef %9, i32 noundef 16, i32 noundef %15, ptr noundef nonnull @.str.10, ptr noundef %4)
  br label %20

16:                                               ; preds = %5
  tail call void @usrc_writeArray(ptr noundef %0, ptr noundef %1, ptr noundef %9, i32 noundef 16, i32 noundef %11, ptr noundef nonnull @.str.10, ptr noundef %4)
  %17 = load ptr, ptr %6, align 8, !tbaa !24
  %18 = getelementptr inbounds nuw i8, ptr %3, i64 28
  %19 = load i32, ptr %18, align 4, !tbaa !31
  tail call void @usrc_writeArray(ptr noundef %0, ptr noundef %2, ptr noundef %17, i32 noundef 32, i32 noundef %19, ptr noundef nonnull @.str.10, ptr noundef %4)
  br label %20

20:                                               ; preds = %16, %12
  ret void
}